(dp0
S' rly '
p1
S' really '
p2
sS' kissingheart '
p3
S' heart '
p4
sS' lol '
p5
S' laugh out loud '
p6
sS' ur '
p7
S' you are '
p8
sS' hearteyes '
p9
g4
sS' smdh '
p10
S' shaking my damn head '
p11
sS' dm '
p12
S' message '
p13
sS' chill '
p14
S' awesome '
p15
sS' af '
p16
S' as fuck '
p17
sS' pls '
p18
S' please '
p19
sS' (: '
p20
S' happy '
p21
sS' finna '
p22
S' going to '
p23
sS' omg '
p24
S' oh my god '
p25
sS' imo '
p26
S' in my opinion '
p27
sS' twohearts '
p28
g4
sS' sparklingheart '
p29
g4
sS' :( '
p30
S' sad '
p31
sS' smh '
p32
S' shaking my head '
p33
sS' rn'
p34
S' right now '
p35
sS' lit '
p36
g15
sS' fyi '
p37
S' for your information '
p38
sS' bruh '
p39
S' brother '
p40
sS' blueheart '
p41
g4
sS' fym '
p42
S' free your mind '
p43
sS' heartpulse '
p44
g4
sS' lmao '
p45
S' laughing my ass off '
p46
sS' gonna '
p47
g23
sS' idk '
p48
S' i dont know '
p49
sS' dope '
p50
g15
sS' greenheart '
p51
g4
sS' purpleheart '
p52
g4
sS' ok '
p53
S' okay '
p54
sS' yellowheart '
p55
g4
sS' wtf '
p56
S' what the fuck '
p57
sS' bro '
p58
g40
sS' guac '
p59
S' guacamole '
p60
sS' idc '
p61
S' i dont care '
p62
s.